target datalayout = "e-m:e-p270:32:32-p271:32:32-p272:64:64-i64:64-i128:128-f80:128-n8:16:32:64-S128"
target triple = "x86_64-pc-linux-gnu"

%struct._packet_info = type { ptr, ptr, i32, i32, %struct.nstime_t, %struct.nstime_t, %struct.nstime_t, i8, ptr, ptr, ptr, ptr, %struct._address, %struct._address, %struct._address, %struct._address, %struct._address, %struct._address, i32, ptr, i8, [3 x i8], %struct.anon, i32, i32, i32, i32, ptr, i8, ptr, ptr, i16, i16, i32, i32, i16, i32, i32, ptr, ptr, ptr, i8, i8, i16, i16, i16, i32, i16, i16, ptr, ptr, ptr, ptr, ptr, i32, i32 }
%struct.nstime_t = type { i64, i32 }
%struct._address = type { i32, i32, ptr, ptr }
%struct.anon = type { i8, [3 x i8] }
%struct._frame_data = type <{ i32, i32, i32, i32, i32, [4 x i8], i64, ptr, ptr, ptr, i8, i16, [5 x i8], %struct.nstime_t, %struct.nstime_t, i32, i32 }>
%struct._rpc_call_info_value = type { i32, i32, i32, i32, i32, i32, i32, i32, i32, i8, %struct.nstime_t, ptr }

@nfs_file_name_snooping = hidden global i8 0, align 1
@hf_nfs_name = internal global i32 0, align 4
@ett_nfs2_diropargs = internal global i32 0, align 4
@.str.2249 = private unnamed_addr constant [4 x i8] c"dir\00", align 1

; Function Attrs: null_pointer_is_valid sspstrong uwtable
define internal i32 @dissect_filename(ptr noundef %0, i32 noundef %1, ptr noundef %2, i32 noundef %3, ptr noundef %4) #0 {
  %6 = alloca ptr, align 8
  %7 = alloca i32, align 4
  %8 = alloca ptr, align 8
  %9 = alloca i32, align 4
  %10 = alloca ptr, align 8
  store ptr %0, ptr %6, align 8
  store i32 %1, ptr %7, align 4
  store ptr %2, ptr %8, align 8
  store i32 %3, ptr %9, align 4
  store ptr %4, ptr %10, align 8
  %11 = load ptr, ptr %6, align 8
  %12 = load ptr, ptr %8, align 8
  %13 = load i32, ptr %9, align 4
  %14 = load i32, ptr %7, align 4
  %15 = load ptr, ptr %10, align 8
  %16 = call i32 @dissect_rpc_string(ptr noundef %11, ptr noundef %12, i32 noundef %13, i32 noundef %14, ptr noundef %15)
  store i32 %16, ptr %7, align 4
  %17 = load i32, ptr %7, align 4
  ret i32 %17
}

; Function Attrs: null_pointer_is_valid sspstrong uwtable
define internal i32 @dissect_diropargs(ptr noundef %0, i32 noundef %1, ptr noundef %2, ptr noundef %3, ptr noundef %4, ptr noundef %5, ptr noundef %6, ptr noundef %7) #0 {
  %9 = alloca ptr, align 8
  %10 = alloca i32, align 4
  %11 = alloca ptr, align 8
  %12 = alloca ptr, align 8
  %13 = alloca ptr, align 8
  %14 = alloca ptr, align 8
  %15 = alloca ptr, align 8
  %16 = alloca ptr, align 8
  %17 = alloca ptr, align 8
  %18 = alloca ptr, align 8
  %19 = alloca i32, align 4
  store ptr %0, ptr %9, align 8
  store i32 %1, ptr %10, align 4
  store ptr %2, ptr %11, align 8
  store ptr %3, ptr %12, align 8
  store ptr %4, ptr %13, align 8
  store ptr %5, ptr %14, align 8
  store ptr %6, ptr %15, align 8
  store ptr %7, ptr %16, align 8
  call void @llvm.lifetime.start.p0(i64 8, ptr %17) #16
  call void @llvm.lifetime.start.p0(i64 8, ptr %18) #16
  call void @llvm.lifetime.start.p0(i64 4, ptr %19) #16
  %20 = load i32, ptr %10, align 4
  store i32 %20, ptr %19, align 4
  %21 = load ptr, ptr %12, align 8
  %22 = load ptr, ptr %9, align 8
  %23 = load i32, ptr %10, align 4
  %24 = load i32, ptr @ett_nfs2_diropargs, align 4
  %25 = load ptr, ptr %13, align 8
  %26 = call ptr @proto_tree_add_subtree(ptr noundef %21, ptr noundef %22, i32 noundef %23, i32 noundef -1, i32 noundef %24, ptr noundef %17, ptr noundef %25)
  store ptr %26, ptr %18, align 8
  %27 = load ptr, ptr %11, align 8
  %28 = getelementptr inbounds nuw %struct._packet_info, ptr %27, i32 0, i32 8
  %29 = load ptr, ptr %28, align 8
  %30 = getelementptr inbounds nuw %struct._frame_data, ptr %29, i32 0, i32 11
  %31 = load i16, ptr %30, align 1
  %32 = lshr i16 %31, 3
  %33 = and i16 %32, 1
  %34 = zext i16 %33 to i32
  %35 = icmp ne i32 %34, 0
  br i1 %35, label %82, label %36

36:                                               ; preds = %8
  %37 = load i8, ptr @nfs_file_name_snooping, align 1, !range !6, !noundef !7
  %38 = trunc i8 %37 to i1
  br i1 %38, label %39, label %82

39:                                               ; preds = %36
  %40 = load ptr, ptr %16, align 8
  %41 = getelementptr inbounds nuw %struct._rpc_call_info_value, ptr %40, i32 0, i32 2
  %42 = load i32, ptr %41, align 8
  %43 = icmp eq i32 %42, 100003
  br i1 %43, label %44, label %81

44:                                               ; preds = %39
  %45 = load ptr, ptr %16, align 8
  %46 = getelementptr inbounds nuw %struct._rpc_call_info_value, ptr %45, i32 0, i32 3
  %47 = load i32, ptr %46, align 4
  %48 = icmp eq i32 %47, 2
  br i1 %48, label %49, label %81

49:                                               ; preds = %44
  %50 = load ptr, ptr %16, align 8
  %51 = getelementptr inbounds nuw %struct._rpc_call_info_value, ptr %50, i32 0, i32 9
  %52 = load i8, ptr %51, align 4, !range !6, !noundef !7
  %53 = trunc i8 %52 to i1
  br i1 %53, label %54, label %81

54:                                               ; preds = %49
  %55 = load ptr, ptr %16, align 8
  %56 = getelementptr inbounds nuw %struct._rpc_call_info_value, ptr %55, i32 0, i32 4
  %57 = load i32, ptr %56, align 8
  %58 = icmp eq i32 %57, 4
  br i1 %58, label %69, label %59

59:                                               ; preds = %54
  %60 = load ptr, ptr %16, align 8
  %61 = getelementptr inbounds nuw %struct._rpc_call_info_value, ptr %60, i32 0, i32 4
  %62 = load i32, ptr %61, align 8
  %63 = icmp eq i32 %62, 9
  br i1 %63, label %69, label %64

64:                                               ; preds = %59
  %65 = load ptr, ptr %16, align 8
  %66 = getelementptr inbounds nuw %struct._rpc_call_info_value, ptr %65, i32 0, i32 4
  %67 = load i32, ptr %66, align 8
  %68 = icmp eq i32 %67, 14
  br i1 %68, label %69, label %81

69:                                               ; preds = %64, %59, %54
  %70 = load ptr, ptr %16, align 8
  %71 = getelementptr inbounds nuw %struct._rpc_call_info_value, ptr %70, i32 0, i32 5
  %72 = load i32, ptr %71, align 4
  %73 = load ptr, ptr %9, align 8
  %74 = load i32, ptr %10, align 4
  %75 = add i32 %74, 36
  %76 = load ptr, ptr %9, align 8
  %77 = load i32, ptr %10, align 4
  %78 = add i32 %77, 32
  %79 = call i32 @tvb_get_ntohl(ptr noundef %76, i32 noundef %78)
  %80 = load i32, ptr %10, align 4
  call void @nfs_name_snoop_add_name(i32 noundef %72, ptr noundef %73, i32 noundef %75, i32 noundef %79, i32 noundef %80, i32 noundef 32, ptr noundef null)
  br label %81

81:                                               ; preds = %69, %64, %49, %44, %39
  br label %82

82:                                               ; preds = %81, %36, %8
  %83 = load ptr, ptr %9, align 8
  %84 = load i32, ptr %10, align 4
  %85 = load ptr, ptr %11, align 8
  %86 = load ptr, ptr %18, align 8
  %87 = load ptr, ptr %14, align 8
  %88 = load ptr, ptr %16, align 8
  %89 = call i32 @dissect_fhandle(ptr noundef %83, i32 noundef %84, ptr noundef %85, ptr noundef %86, ptr noundef @.str.2249, ptr noundef %87, ptr noundef %88)
  store i32 %89, ptr %10, align 4
  %90 = load ptr, ptr %9, align 8
  %91 = load i32, ptr %10, align 4
  %92 = load ptr, ptr %18, align 8
  %93 = load i32, ptr @hf_nfs_name, align 4
  %94 = load ptr, ptr %15, align 8
  %95 = call i32 @dissect_filename(ptr noundef %90, i32 noundef %91, ptr noundef %92, i32 noundef %93, ptr noundef %94)
  store i32 %95, ptr %10, align 4
  %96 = load ptr, ptr %17, align 8
  %97 = load i32, ptr %10, align 4
  %98 = load i32, ptr %19, align 4
  %99 = sub i32 %97, %98
  call void @proto_item_set_len(ptr noundef %96, i32 noundef %99)
  %100 = load i32, ptr %10, align 4
  call void @llvm.lifetime.end.p0(i64 4, ptr %19) #16
  call void @llvm.lifetime.end.p0(i64 8, ptr %18) #16
  call void @llvm.lifetime.end.p0(i64 8, ptr %17) #16
  ret i32 %100
}