; Function Attrs: null_pointer_is_valid sspstrong uwtable
define internal fastcc i32 @dissect_diropargs(ptr noundef %0, i32 noundef %1, ptr noundef %2, ptr noundef %3, ptr noundef %4, ptr noundef captures(address_is_null) %5, ptr noundef %6, ptr noundef readonly captures(none) %7) unnamed_addr #0 {
  %9 = alloca ptr, align 8
  call void @llvm.lifetime.start.p0(i64 8, ptr nonnull %9) #22
  %10 = load i32, ptr @ett_nfs2_diropargs, align 4
  %11 = call ptr @proto_tree_add_subtree(ptr noundef %3, ptr noundef %0, i32 noundef %1, i32 noundef -1, i32 noundef %10, ptr noundef nonnull %9, ptr noundef %4)
  %12 = getelementptr inbounds nuw i8, ptr %2, i64 80
  %13 = load ptr, ptr %12, align 8
  %14 = getelementptr inbounds nuw i8, ptr %13, i64 57
  %15 = load i16, ptr %14, align 1
  %16 = and i16 %15, 8
  %.not = icmp eq i16 %16, 0
  br i1 %.not, label %17, label %41

17:                                               ; preds = %8
  %18 = load i8, ptr @nfs_file_name_snooping, align 1, !range !10, !noundef !11
  %19 = trunc nuw i8 %18 to i1
  br i1 %19, label %20, label %41

20:                                               ; preds = %17
  %21 = getelementptr inbounds nuw i8, ptr %7, i64 8
  %22 = load i32, ptr %21, align 8
  %23 = icmp eq i32 %22, 100003
  br i1 %23, label %24, label %41

24:                                               ; preds = %20
  %25 = getelementptr inbounds nuw i8, ptr %7, i64 12
  %26 = load i32, ptr %25, align 4
  %27 = icmp eq i32 %26, 2
  br i1 %27, label %28, label %41

28:                                               ; preds = %24
  %29 = getelementptr inbounds nuw i8, ptr %7, i64 36
  %30 = load i8, ptr %29, align 4, !range !10, !noundef !11
  %31 = trunc nuw i8 %30 to i1
  br i1 %31, label %32, label %41

32:                                               ; preds = %28
  %33 = getelementptr inbounds nuw i8, ptr %7, i64 16
  %34 = load i32, ptr %33, align 8
  switch i32 %34, label %41 [
    i32 4, label %35
    i32 9, label %35
    i32 14, label %35
  ]

35:                                               ; preds = %32, %32, %32
  %36 = getelementptr inbounds nuw i8, ptr %7, i64 20
  %37 = load i32, ptr %36, align 4
  %38 = add i32 %1, 36
  %39 = add i32 %1, 32
  %40 = call i32 @tvb_get_ntohl(ptr noundef %0, i32 noundef %39)
  call void @nfs_name_snoop_add_name(i32 noundef %37, ptr noundef %0, i32 noundef %38, i32 noundef %40, i32 noundef %1, i32 noundef 32, ptr noundef null)
  br label %41

41:                                               ; preds = %32, %20, %24, %28, %35, %17, %8
  %42 = call i32 @dissect_fhandle(ptr noundef %0, i32 noundef %1, ptr noundef %2, ptr noundef %11, ptr noundef nonnull @.str.2249, ptr noundef %5, ptr noundef %7)
  %43 = load i32, ptr @hf_nfs_name, align 4
  %44 = call i32 @dissect_rpc_string(ptr noundef %0, ptr noundef %11, i32 noundef %43, i32 noundef %42, ptr noundef %6)
  %45 = load ptr, ptr %9, align 8
  %46 = sub i32 %44, %1
  call void @proto_item_set_len(ptr noundef %45, i32 noundef %46)
  call void @llvm.lifetime.end.p0(i64 8, ptr nonnull %9) #22
  ret i32 %44
}